; Function Attrs: mustprogress nofree norecurse nosync nounwind willreturn memory(argmem: readwrite) uwtable
define dso_local void @_ZN4Luau8Location6extendERKS0_(ptr nocapture noundef nonnull align 4 dereferenceable(16) %0, ptr nocapture noundef nonnull readonly align 4 dereferenceable(16) %1) local_unnamed_addr #1 align 2 {
  %3 = load i32, ptr %1, align 4
  %4 = load i32, ptr %0, align 4
  %5 = icmp eq i32 %3, %4
  %6 = getelementptr inbounds i8, ptr %1, i64 4
  %7 = load i32, ptr %6, align 4
  %8 = getelementptr inbounds i8, ptr %0, i64 4
  %9 = load i32, ptr %8, align 4
  %10 = icmp ult i32 %7, %9
  %11 = icmp ult i32 %3, %4
  %.0.i = select i1 %5, i1 %10, i1 %11
  br i1 %.0.i, label %12, label %14

12:                                               ; preds = %2
  %13 = load i64, ptr %1, align 4
  store i64 %13, ptr %0, align 4
  br label %14

14:                                               ; preds = %12, %2
  %15 = getelementptr inbounds i8, ptr %1, i64 8
  %16 = getelementptr inbounds i8, ptr %0, i64 8
  %17 = load i32, ptr %15, align 4
  %18 = load i32, ptr %16, align 4
  %19 = icmp eq i32 %17, %18
  %20 = getelementptr inbounds i8, ptr %1, i64 12
  %21 = load i32, ptr %20, align 4
  %22 = getelementptr inbounds i8, ptr %0, i64 12
  %23 = load i32, ptr %22, align 4
  %24 = icmp ugt i32 %21, %23
  %25 = icmp ugt i32 %17, %18
  %.0.i5 = select i1 %19, i1 %24, i1 %25
  br i1 %.0.i5, label %26, label %28

26:                                               ; preds = %14
  %27 = load i64, ptr %15, align 4
  store i64 %27, ptr %16, align 4
  br label %28

28:                                               ; preds = %26, %14
  ret void
}